target datalayout = "e-m:e-p270:32:32-p271:32:32-p272:64:64-i64:64-i128:128-f80:128-n8:16:32:64-S128"
target triple = "x86_64-pc-linux-gnu"

%struct.LOCKTAG = type { i32, i32, i32, i16, i8, i8 }
%struct.dlist_head = type { %struct.dlist_node }
%struct.dlist_node = type { ptr, ptr }
%struct.LWLock = type { i16, %struct.pg_atomic_uint32, %struct.proclist_head }
%struct.pg_atomic_uint32 = type { i32 }
%struct.proclist_head = type { i32, i32 }
%struct.PGPROC = type { %struct.dlist_node, ptr, ptr, i32, %struct.Latch, i32, i32, i32, i32, %struct.anon, i32, i32, i32, i8, i8, i8, i8, %struct.proclist_node, %struct.proclist_node, ptr, ptr, i32, i32, %struct.pg_atomic_uint64, i32, i8, i64, i32, %struct.dlist_node, [16 x %struct.dlist_head], %struct.XidCacheStatus, %struct.XidCache, i8, %struct.pg_atomic_uint32, i32, i32, i8, %struct.pg_atomic_uint32, i32, i32, i64, i64, %struct.LWLock, ptr, ptr, i8, i32, ptr, %struct.dlist_head, %struct.dlist_node }
%struct.Latch = type { i32, i32, i8, i32 }
%struct.anon = type { i32, i32 }
%struct.proclist_node = type { i32, i32 }
%struct.pg_atomic_uint64 = type { i64 }
%struct.XidCacheStatus = type { i8, i8 }
%struct.XidCache = type { [64 x i32] }
%struct.VirtualTransactionId = type { i32, i32 }

@LockMethods = internal constant [3 x ptr] [ptr null, ptr @default_lockmethod, ptr @user_lockmethod], align 16
@MyProc = external global ptr, align 8
@MyProcNumber = external global i32, align 4

; Function Attrs: nounwind uwtable
define dso_local void @VirtualXactLockTableCleanup() #0 {
  %1 = alloca i8, align 1
  %2 = alloca i32, align 4
  %3 = alloca %struct.VirtualTransactionId, align 4
  %4 = alloca %struct.LOCKTAG, align 4
  call void @llvm.lifetime.start.p0(i64 1, ptr %1) #9
  call void @llvm.lifetime.start.p0(i64 4, ptr %2) #9
  %5 = load ptr, ptr @MyProc, align 8
  %6 = getelementptr inbounds nuw %struct.PGPROC, ptr %5, i32 0, i32 42
  %7 = call zeroext i1 @LWLockAcquire(ptr noundef %6, i32 noundef 0)
  %8 = load ptr, ptr @MyProc, align 8
  %9 = getelementptr inbounds nuw %struct.PGPROC, ptr %8, i32 0, i32 45
  %10 = load i8, ptr %9, align 8, !range !4, !noundef !5
  %11 = trunc i8 %10 to i1
  %12 = zext i1 %11 to i8
  store i8 %12, ptr %1, align 1
  %13 = load ptr, ptr @MyProc, align 8
  %14 = getelementptr inbounds nuw %struct.PGPROC, ptr %13, i32 0, i32 46
  %15 = load i32, ptr %14, align 4
  store i32 %15, ptr %2, align 4
  %16 = load ptr, ptr @MyProc, align 8
  %17 = getelementptr inbounds nuw %struct.PGPROC, ptr %16, i32 0, i32 45
  store i8 0, ptr %17, align 8
  %18 = load ptr, ptr @MyProc, align 8
  %19 = getelementptr inbounds nuw %struct.PGPROC, ptr %18, i32 0, i32 46
  store i32 0, ptr %19, align 4
  %20 = load ptr, ptr @MyProc, align 8
  %21 = getelementptr inbounds nuw %struct.PGPROC, ptr %20, i32 0, i32 42
  call void @LWLockRelease(ptr noundef %21)
  %22 = load i8, ptr %1, align 1, !range !4, !noundef !5
  %23 = trunc i8 %22 to i1
  br i1 %23, label %44, label %24

24:                                               ; preds = %0
  %25 = load i32, ptr %2, align 4
  %26 = icmp ne i32 %25, 0
  br i1 %26, label %27, label %44

27:                                               ; preds = %24
  call void @llvm.lifetime.start.p0(i64 8, ptr %3) #9
  call void @llvm.lifetime.start.p0(i64 16, ptr %4) #9
  %28 = load i32, ptr @MyProcNumber, align 4
  %29 = getelementptr inbounds nuw %struct.VirtualTransactionId, ptr %3, i32 0, i32 0
  store i32 %28, ptr %29, align 4
  %30 = load i32, ptr %2, align 4
  %31 = getelementptr inbounds nuw %struct.VirtualTransactionId, ptr %3, i32 0, i32 1
  store i32 %30, ptr %31, align 4
  %32 = getelementptr inbounds nuw %struct.VirtualTransactionId, ptr %3, i32 0, i32 0
  %33 = load i32, ptr %32, align 4
  %34 = getelementptr inbounds nuw %struct.LOCKTAG, ptr %4, i32 0, i32 0
  store i32 %33, ptr %34, align 4
  %35 = getelementptr inbounds nuw %struct.VirtualTransactionId, ptr %3, i32 0, i32 1
  %36 = load i32, ptr %35, align 4
  %37 = getelementptr inbounds nuw %struct.LOCKTAG, ptr %4, i32 0, i32 1
  store i32 %36, ptr %37, align 4
  %38 = getelementptr inbounds nuw %struct.LOCKTAG, ptr %4, i32 0, i32 2
  store i32 0, ptr %38, align 4
  %39 = getelementptr inbounds nuw %struct.LOCKTAG, ptr %4, i32 0, i32 3
  store i16 0, ptr %39, align 4
  %40 = getelementptr inbounds nuw %struct.LOCKTAG, ptr %4, i32 0, i32 4
  store i8 6, ptr %40, align 2
  %41 = getelementptr inbounds nuw %struct.LOCKTAG, ptr %4, i32 0, i32 5
  store i8 1, ptr %41, align 1
  %42 = load ptr, ptr getelementptr inbounds ([3 x ptr], ptr @LockMethods, i64 0, i64 1), align 8
  %43 = load ptr, ptr @MyProc, align 8
  call void @LockRefindAndRelease(ptr noundef %42, ptr noundef %43, ptr noundef %4, i32 noundef 7, i1 noundef zeroext false)
  call void @llvm.lifetime.end.p0(i64 16, ptr %4) #9
  call void @llvm.lifetime.end.p0(i64 8, ptr %3) #9
  br label %44

44:                                               ; preds = %27, %24, %0
  call void @llvm.lifetime.end.p0(i64 4, ptr %2) #9
  call void @llvm.lifetime.end.p0(i64 1, ptr %1) #9
  ret void
}