; Function Attrs: nounwind uwtable
define dso_local void @VirtualXactLockTableCleanup() local_unnamed_addr #0 {
  %1 = alloca %struct.LOCKTAG, align 4
  %2 = load ptr, ptr @MyProc, align 8
  %3 = getelementptr inbounds nuw i8, ptr %2, i64 752
  %4 = tail call zeroext i1 @LWLockAcquire(ptr noundef nonnull %3, i32 noundef 0) #17
  %5 = load ptr, ptr @MyProc, align 8
  %6 = getelementptr inbounds nuw i8, ptr %5, i64 784
  %7 = load i8, ptr %6, align 8, !range !4, !noundef !5
  %8 = trunc nuw i8 %7 to i1
  %9 = getelementptr inbounds nuw i8, ptr %5, i64 788
  %10 = load i32, ptr %9, align 4
  store i8 0, ptr %6, align 8
  store i32 0, ptr %9, align 4
  %11 = getelementptr inbounds nuw i8, ptr %5, i64 752
  tail call void @LWLockRelease(ptr noundef nonnull %11) #17
  %12 = icmp eq i32 %10, 0
  %or.cond.not = select i1 %8, i1 true, i1 %12
  br i1 %or.cond.not, label %21, label %13

13:                                               ; preds = %0
  call void @llvm.lifetime.start.p0(i64 16, ptr nonnull %1) #17
  %14 = load i32, ptr @MyProcNumber, align 4
  store i32 %14, ptr %1, align 4
  %15 = getelementptr inbounds nuw i8, ptr %1, i64 4
  store i32 %10, ptr %15, align 4
  %16 = getelementptr inbounds nuw i8, ptr %1, i64 8
  store i32 0, ptr %16, align 4
  %17 = getelementptr inbounds nuw i8, ptr %1, i64 12
  store i16 0, ptr %17, align 4
  %18 = getelementptr inbounds nuw i8, ptr %1, i64 14
  store i8 6, ptr %18, align 2
  %19 = getelementptr inbounds nuw i8, ptr %1, i64 15
  store i8 1, ptr %19, align 1
  %20 = load ptr, ptr @MyProc, align 8
  call fastcc void @LockRefindAndRelease(ptr noundef nonnull @default_lockmethod, ptr noundef %20, ptr noundef nonnull %1, i32 noundef 7, i1 noundef zeroext false)
  call void @llvm.lifetime.end.p0(i64 16, ptr nonnull %1) #17
  br label %21

21:                                               ; preds = %13, %0
  ret void
}